target datalayout = "e-m:e-p270:32:32-p271:32:32-p272:64:64-i64:64-i128:128-f80:128-n8:16:32:64-S128"
target triple = "x86_64-pc-linux-gnu"

%struct.AVCodecContext = type { ptr, i32, i32, ptr, i32, i32, ptr, ptr, ptr, i64, i32, i32, ptr, i32, %struct.AVRational, %struct.AVRational, %struct.AVRational, i32, i32, i32, i32, i32, %struct.AVRational, i32, i32, i32, i32, i32, i32, i32, i32, i32, i32, i32, ptr, ptr, i32, float, float, float, float, float, float, float, float, float, i32, i32, i32, i32, i32, i32, i32, i32, i32, i32, i32, i32, ptr, ptr, ptr, i32, i32, i32, i32, i32, i32, i32, i32, i32, i32, %struct.AVChannelLayout, i32, i32, i32, i32, i32, i32, i32, i32, ptr, i32, i32, i32, float, float, i32, i32, i32, i32, i32, ptr, i64, i64, float, float, i32, i32, ptr, ptr, i32, i32, i32, i32, i32, ptr, ptr, ptr, ptr, i32, i32, [8 x i64], i32, i32, i32, i32, i32, i32, i32, ptr, ptr, i32, i32, i32, i32, i32, i32, i32, i32, i32, i32, ptr, ptr, i32, i32, ptr, ptr, ptr, ptr, i32, i32, i64, i32, i32, i64, ptr, i64, ptr, i32, ptr, i32 }
%struct.AVRational = type { i32, i32 }
%struct.AVChannelLayout = type { i32, i32, %union.anon, ptr }
%union.anon = type { i64 }
%struct.FFPsyPreprocessContext = type { ptr, float, ptr, ptr, %struct.FFIIRFilterContext }
%struct.FFIIRFilterContext = type { ptr }

; Function Attrs: cold nounwind optsize uwtable
define void @ff_psy_preprocess_end(ptr noundef %0) #0 {
  %2 = alloca ptr, align 8
  %3 = alloca i32, align 4
  store ptr %0, ptr %2, align 8, !tbaa !62
  call void @llvm.lifetime.start.p0(i64 4, ptr %3) #5
  %4 = load ptr, ptr %2, align 8, !tbaa !62
  %5 = getelementptr inbounds nuw %struct.FFPsyPreprocessContext, ptr %4, i32 0, i32 2
  call void @ff_iir_filter_free_coeffsp(ptr noundef %5)
  %6 = load ptr, ptr %2, align 8, !tbaa !62
  %7 = getelementptr inbounds nuw %struct.FFPsyPreprocessContext, ptr %6, i32 0, i32 3
  %8 = load ptr, ptr %7, align 8, !tbaa !71
  %9 = icmp ne ptr %8, null
  br i1 %9, label %10, label %31

10:                                               ; preds = %1
  store i32 0, ptr %3, align 4, !tbaa !11
  br label %11

11:                                               ; preds = %27, %10
  %12 = load i32, ptr %3, align 4, !tbaa !11
  %13 = load ptr, ptr %2, align 8, !tbaa !62
  %14 = getelementptr inbounds nuw %struct.FFPsyPreprocessContext, ptr %13, i32 0, i32 0
  %15 = load ptr, ptr %14, align 8, !tbaa !64
  %16 = getelementptr inbounds nuw %struct.AVCodecContext, ptr %15, i32 0, i32 71
  %17 = getelementptr inbounds nuw %struct.AVChannelLayout, ptr %16, i32 0, i32 1
  %18 = load i32, ptr %17, align 4, !tbaa !26
  %19 = icmp slt i32 %12, %18
  br i1 %19, label %20, label %30

20:                                               ; preds = %11
  %21 = load ptr, ptr %2, align 8, !tbaa !62
  %22 = getelementptr inbounds nuw %struct.FFPsyPreprocessContext, ptr %21, i32 0, i32 3
  %23 = load ptr, ptr %22, align 8, !tbaa !71
  %24 = load i32, ptr %3, align 4, !tbaa !11
  %25 = sext i32 %24 to i64
  %26 = getelementptr inbounds ptr, ptr %23, i64 %25
  call void @ff_iir_filter_free_statep(ptr noundef %26)
  br label %27

27:                                               ; preds = %20
  %28 = load i32, ptr %3, align 4, !tbaa !11
  %29 = add nsw i32 %28, 1
  store i32 %29, ptr %3, align 4, !tbaa !11
  br label %11, !llvm.loop !84

30:                                               ; preds = %11
  br label %31

31:                                               ; preds = %30, %1
  %32 = load ptr, ptr %2, align 8, !tbaa !62
  %33 = getelementptr inbounds nuw %struct.FFPsyPreprocessContext, ptr %32, i32 0, i32 3
  call void @av_freep(ptr noundef %33)
  %34 = load ptr, ptr %2, align 8, !tbaa !62
  call void @av_free(ptr noundef %34)
  call void @llvm.lifetime.end.p0(i64 4, ptr %3) #5
  ret void
}