; Function Attrs: cold nounwind optsize uwtable
define void @ff_psy_preprocess_end(ptr noundef %0) local_unnamed_addr #0 {
  %2 = getelementptr inbounds nuw i8, ptr %0, i64 16
  tail call void @ff_iir_filter_free_coeffsp(ptr noundef nonnull %2) #5
  %3 = getelementptr inbounds nuw i8, ptr %0, i64 24
  %4 = load ptr, ptr %3, align 8, !tbaa !61
  %.not = icmp eq ptr %4, null
  br i1 %.not, label %.loopexit, label %.preheader

.preheader:                                       ; preds = %1
  %5 = load ptr, ptr %0, align 8, !tbaa !54
  %6 = getelementptr inbounds nuw i8, ptr %5, i64 356
  %7 = load i32, ptr %6, align 4, !tbaa !18
  %8 = icmp sgt i32 %7, 0
  br i1 %8, label %.lr.ph, label %.loopexit

.lr.ph:                                           ; preds = %.preheader, %.lr.ph
  %indvars.iv = phi i64 [ %indvars.iv.next, %.lr.ph ], [ 0, %.preheader ]
  %9 = load ptr, ptr %3, align 8, !tbaa !61
  %10 = getelementptr inbounds nuw ptr, ptr %9, i64 %indvars.iv
  tail call void @ff_iir_filter_free_statep(ptr noundef %10) #5
  %indvars.iv.next = add nuw nsw i64 %indvars.iv, 1
  %11 = load ptr, ptr %0, align 8, !tbaa !54
  %12 = getelementptr inbounds nuw i8, ptr %11, i64 356
  %13 = load i32, ptr %12, align 4, !tbaa !18
  %14 = sext i32 %13 to i64
  %15 = icmp slt i64 %indvars.iv.next, %14
  br i1 %15, label %.lr.ph, label %.loopexit, !llvm.loop !70

.loopexit:                                        ; preds = %.lr.ph, %.preheader, %1
  tail call void @av_freep(ptr noundef nonnull %3) #5
  tail call void @av_free(ptr noundef nonnull %0) #5
  ret void
}